target datalayout = "e-m:e-p270:32:32-p271:32:32-p272:64:64-i64:64-i128:128-f80:128-n8:16:32:64-S128"
target triple = "x86_64-pc-linux-gnu"

%struct.expert_field = type { i32, i32 }

@ei_wsp_trailing_quote = internal global %struct.expert_field zeroinitializer, align 4
@.str.812 = private unnamed_addr constant [8 x i8] c"; %s=%s\00", align 1
@.str.858 = private unnamed_addr constant [4 x i8] c"%s\22\00", align 1

; Function Attrs: null_pointer_is_valid sspstrong uwtable
define internal zeroext i1 @parameter_text_value(ptr noundef %0, ptr noundef %1, ptr noundef %2, ptr noundef %3, ptr noundef %4, i32 noundef %5) #1 {
  %7 = alloca ptr, align 8
  %8 = alloca ptr, align 8
  %9 = alloca ptr, align 8
  %10 = alloca ptr, align 8
  %11 = alloca ptr, align 8
  %12 = alloca i32, align 4
  %13 = alloca ptr, align 8
  %14 = alloca ptr, align 8
  %15 = alloca i8, align 1
  %16 = alloca i32, align 4
  %17 = alloca ptr, align 8
  store ptr %0, ptr %7, align 8
  store ptr %1, ptr %8, align 8
  store ptr %2, ptr %9, align 8
  store ptr %3, ptr %10, align 8
  store ptr %4, ptr %11, align 8
  store i32 %5, ptr %12, align 4
  call void @llvm.lifetime.start.p0(i64 8, ptr %13) #8
  call void @llvm.lifetime.start.p0(i64 8, ptr %14) #8
  call void @llvm.lifetime.start.p0(i64 1, ptr %15) #8
  call void @llvm.lifetime.start.p0(i64 4, ptr %16) #8
  call void @llvm.lifetime.start.p0(i64 8, ptr %17) #8
  %18 = load ptr, ptr %9, align 8
  %19 = load ptr, ptr %10, align 8
  %20 = load i32, ptr %19, align 4
  %21 = call zeroext i8 @tvb_get_uint8(ptr noundef %18, i32 noundef %20)
  %22 = zext i8 %21 to i32
  %23 = icmp eq i32 %22, 0
  br i1 %23, label %38, label %24

24:                                               ; preds = %6
  %25 = load ptr, ptr %9, align 8
  %26 = load ptr, ptr %10, align 8
  %27 = load i32, ptr %26, align 4
  %28 = call zeroext i8 @tvb_get_uint8(ptr noundef %25, i32 noundef %27)
  %29 = zext i8 %28 to i32
  %30 = icmp sge i32 %29, 32
  br i1 %30, label %31, label %44

31:                                               ; preds = %24
  %32 = load ptr, ptr %9, align 8
  %33 = load ptr, ptr %10, align 8
  %34 = load i32, ptr %33, align 4
  %35 = call zeroext i8 @tvb_get_uint8(ptr noundef %32, i32 noundef %34)
  %36 = zext i8 %35 to i32
  %37 = icmp sle i32 %36, 127
  br i1 %37, label %38, label %44

38:                                               ; preds = %31, %6
  %39 = call ptr @wmem_packet_scope()
  %40 = load ptr, ptr %9, align 8
  %41 = load ptr, ptr %10, align 8
  %42 = load i32, ptr %41, align 4
  %43 = call ptr @tvb_get_stringz_enc(ptr noundef %39, ptr noundef %40, i32 noundef %42, ptr noundef %16, i32 noundef 0)
  store ptr %43, ptr %13, align 8
  store i8 1, ptr %15, align 1
  br label %45

44:                                               ; preds = %31, %24
  store i32 0, ptr %16, align 4
  store ptr null, ptr %13, align 8
  store i8 0, ptr %15, align 1
  br label %45

45:                                               ; preds = %44, %38
  %46 = load i8, ptr %15, align 1, !range !6, !noundef !7
  %47 = trunc i8 %46 to i1
  br i1 %47, label %48, label %106

48:                                               ; preds = %45
  %49 = load ptr, ptr %13, align 8
  %50 = getelementptr i8, ptr %49, i64 0
  %51 = load i8, ptr %50, align 1
  %52 = sext i8 %51 to i32
  %53 = icmp eq i32 %52, 34
  br i1 %53, label %54, label %88

54:                                               ; preds = %48
  %55 = load ptr, ptr %13, align 8
  %56 = load i32, ptr %16, align 4
  %57 = sub i32 %56, 2
  %58 = zext i32 %57 to i64
  %59 = getelementptr i8, ptr %55, i64 %58
  %60 = load i8, ptr %59, align 1
  %61 = sext i8 %60 to i32
  %62 = icmp eq i32 %61, 34
  br i1 %62, label %63, label %75

63:                                               ; preds = %54
  %64 = load ptr, ptr %7, align 8
  %65 = load i32, ptr %12, align 4
  %66 = load ptr, ptr %9, align 8
  %67 = load ptr, ptr %10, align 8
  %68 = load i32, ptr %67, align 4
  %69 = load i32, ptr %16, align 4
  %70 = load ptr, ptr %13, align 8
  %71 = call ptr @proto_tree_add_string(ptr noundef %64, i32 noundef %65, ptr noundef %66, i32 noundef %68, i32 noundef %69, ptr noundef %70)
  store ptr %71, ptr %17, align 8
  %72 = load ptr, ptr %8, align 8
  %73 = load ptr, ptr %17, align 8
  %74 = call ptr @expert_add_info(ptr noundef %72, ptr noundef %73, ptr noundef @ei_wsp_trailing_quote)
  br label %87

75:                                               ; preds = %54
  %76 = call ptr @wmem_packet_scope()
  %77 = load ptr, ptr %13, align 8
  %78 = call noalias ptr (ptr, ptr, ...) @wmem_strdup_printf(ptr noundef %76, ptr noundef @.str.858, ptr noundef %77)
  store ptr %78, ptr %14, align 8
  %79 = load ptr, ptr %7, align 8
  %80 = load i32, ptr %12, align 4
  %81 = load ptr, ptr %9, align 8
  %82 = load ptr, ptr %10, align 8
  %83 = load i32, ptr %82, align 4
  %84 = load i32, ptr %16, align 4
  %85 = load ptr, ptr %14, align 8
  %86 = call ptr @proto_tree_add_string(ptr noundef %79, i32 noundef %80, ptr noundef %81, i32 noundef %83, i32 noundef %84, ptr noundef %85)
  br label %87

87:                                               ; preds = %75, %63
  br label %97

88:                                               ; preds = %48
  %89 = load ptr, ptr %7, align 8
  %90 = load i32, ptr %12, align 4
  %91 = load ptr, ptr %9, align 8
  %92 = load ptr, ptr %10, align 8
  %93 = load i32, ptr %92, align 4
  %94 = load i32, ptr %16, align 4
  %95 = load ptr, ptr %13, align 8
  %96 = call ptr @proto_tree_add_string(ptr noundef %89, i32 noundef %90, ptr noundef %91, i32 noundef %93, i32 noundef %94, ptr noundef %95)
  br label %97

97:                                               ; preds = %88, %87
  %98 = load ptr, ptr %11, align 8
  %99 = load i32, ptr %12, align 4
  %100 = call ptr @proto_registrar_get_name(i32 noundef %99)
  %101 = load ptr, ptr %13, align 8
  call void (ptr, ptr, ...) @proto_item_append_text(ptr noundef %98, ptr noundef @.str.812, ptr noundef %100, ptr noundef %101)
  %102 = load i32, ptr %16, align 4
  %103 = load ptr, ptr %10, align 8
  %104 = load i32, ptr %103, align 4
  %105 = add i32 %104, %102
  store i32 %105, ptr %103, align 4
  br label %106

106:                                              ; preds = %97, %45
  %107 = load i8, ptr %15, align 1, !range !6, !noundef !7
  %108 = trunc i8 %107 to i1
  call void @llvm.lifetime.end.p0(i64 8, ptr %17) #8
  call void @llvm.lifetime.end.p0(i64 4, ptr %16) #8
  call void @llvm.lifetime.end.p0(i64 1, ptr %15) #8
  call void @llvm.lifetime.end.p0(i64 8, ptr %14) #8
  call void @llvm.lifetime.end.p0(i64 8, ptr %13) #8
  ret i1 %108
}