; Function Attrs: null_pointer_is_valid sspstrong uwtable
define internal fastcc noundef zeroext i1 @parameter_text_value(ptr noundef %0, ptr noundef %1, ptr noundef %2, ptr noundef captures(none) %3, ptr noundef %4, i32 noundef %5) unnamed_addr #1 {
  %7 = alloca i32, align 4
  call void @llvm.lifetime.start.p0(i64 4, ptr nonnull %7) #5
  %8 = load i32, ptr %3, align 4
  %9 = tail call zeroext i8 @tvb_get_uint8(ptr noundef %2, i32 noundef %8)
  %10 = icmp eq i8 %9, 0
  br i1 %10, label %19, label %11

11:                                               ; preds = %6
  %12 = load i32, ptr %3, align 4
  %13 = tail call zeroext i8 @tvb_get_uint8(ptr noundef %2, i32 noundef %12)
  %14 = icmp ugt i8 %13, 31
  br i1 %14, label %15, label %51

15:                                               ; preds = %11
  %16 = load i32, ptr %3, align 4
  %17 = tail call zeroext i8 @tvb_get_uint8(ptr noundef %2, i32 noundef %16)
  %18 = icmp sgt i8 %17, -1
  br i1 %18, label %19, label %51

19:                                               ; preds = %6, %15
  %20 = tail call ptr @wmem_packet_scope()
  %21 = load i32, ptr %3, align 4
  %22 = call ptr @tvb_get_stringz_enc(ptr noundef %20, ptr noundef %2, i32 noundef %21, ptr noundef nonnull %7, i32 noundef 0)
  %23 = load i8, ptr %22, align 1
  %24 = icmp eq i8 %23, 34
  br i1 %24, label %25, label %42

25:                                               ; preds = %19
  %26 = load i32, ptr %7, align 4
  %27 = add i32 %26, -2
  %28 = zext i32 %27 to i64
  %29 = getelementptr i8, ptr %22, i64 %28
  %30 = load i8, ptr %29, align 1
  %31 = icmp eq i8 %30, 34
  br i1 %31, label %32, label %36

32:                                               ; preds = %25
  %33 = load i32, ptr %3, align 4
  %34 = call ptr @proto_tree_add_string(ptr noundef %0, i32 noundef %5, ptr noundef %2, i32 noundef %33, i32 noundef %26, ptr noundef %22)
  %35 = call ptr @expert_add_info(ptr noundef %1, ptr noundef %34, ptr noundef nonnull @ei_wsp_trailing_quote)
  br label %46

36:                                               ; preds = %25
  %37 = call ptr @wmem_packet_scope()
  %38 = call noalias ptr (ptr, ptr, ...) @wmem_strdup_printf(ptr noundef %37, ptr noundef nonnull @.str.858, ptr noundef %22)
  %39 = load i32, ptr %3, align 4
  %40 = load i32, ptr %7, align 4
  %41 = call ptr @proto_tree_add_string(ptr noundef %0, i32 noundef %5, ptr noundef %2, i32 noundef %39, i32 noundef %40, ptr noundef %38)
  br label %46

42:                                               ; preds = %19
  %43 = load i32, ptr %3, align 4
  %44 = load i32, ptr %7, align 4
  %45 = call ptr @proto_tree_add_string(ptr noundef %0, i32 noundef %5, ptr noundef %2, i32 noundef %43, i32 noundef %44, ptr noundef %22)
  br label %46

46:                                               ; preds = %32, %36, %42
  %47 = call ptr @proto_registrar_get_name(i32 noundef %5)
  call void (ptr, ptr, ...) @proto_item_append_text(ptr noundef %4, ptr noundef nonnull @.str.812, ptr noundef %47, ptr noundef %22)
  %48 = load i32, ptr %7, align 4
  %49 = load i32, ptr %3, align 4
  %50 = add i32 %49, %48
  store i32 %50, ptr %3, align 4
  br label %51

51:                                               ; preds = %15, %11, %46
  %.03336 = phi i1 [ true, %46 ], [ false, %11 ], [ false, %15 ]
  call void @llvm.lifetime.end.p0(i64 4, ptr nonnull %7) #5
  ret i1 %.03336
}